; Function Attrs: nounwind uwtable
define range(i32 0, 2) i32 @Saig_ManFilterUsingIndOne_new(ptr noundef readnone captures(none) %0, ptr noundef readonly captures(none) %1, ptr noundef %2, ptr noundef readonly captures(none) %3, i32 noundef %4, i32 noundef %5, i32 noundef %6) local_unnamed_addr #0 {
  %8 = alloca i32, align 4
  call void @llvm.lifetime.start.p0(i64 4, ptr nonnull %8) #16
  %9 = getelementptr i8, ptr %1, i64 24
  %.val7 = load ptr, ptr %9, align 8, !tbaa !39
  %10 = getelementptr i8, ptr %.val7, i64 8
  %.val7.val = load ptr, ptr %10, align 8, !tbaa !40
  %11 = sext i32 %6 to i64
  %12 = getelementptr inbounds ptr, ptr %.val7.val, i64 %11
  %13 = load ptr, ptr %12, align 8, !tbaa !28
  %14 = getelementptr inbounds nuw i8, ptr %3, i64 32
  %15 = load ptr, ptr %14, align 8, !tbaa !84
  %16 = getelementptr i8, ptr %13, i64 36
  %.val = load i32, ptr %16, align 4, !tbaa !38
  %17 = sext i32 %.val to i64
  %18 = getelementptr inbounds i32, ptr %15, i64 %17
  %19 = load i32, ptr %18, align 4, !tbaa !9
  %20 = shl nsw i32 %19, 1
  store i32 %20, ptr %8, align 4, !tbaa !9
  %21 = getelementptr inbounds nuw i8, ptr %8, i64 4
  %22 = sext i32 %4 to i64
  %23 = call i32 @sat_solver_solve(ptr noundef %2, ptr noundef nonnull %8, ptr noundef nonnull %21, i64 noundef %22, i64 noundef 0, i64 noundef 0, i64 noundef 0) #16
  %24 = icmp eq i32 %23, -1
  %. = zext i1 %24 to i32
  call void @llvm.lifetime.end.p0(i64 4, ptr nonnull %8) #16
  ret i32 %.
}